target datalayout = "e-m:e-p270:32:32-p271:32:32-p272:64:64-i64:64-i128:128-f80:128-n8:16:32:64-S128"
target triple = "x86_64-pc-linux-gnu"

%struct.darktable_t = type { %struct.dt_codepath_t, i32, i32, ptr, ptr, ptr, ptr, ptr, ptr, ptr, ptr, ptr, ptr, ptr, ptr, ptr, ptr, ptr, ptr, ptr, ptr, ptr, ptr, ptr, ptr, ptr, ptr, ptr, ptr, ptr, [64 x %struct.dt_pthread_mutex_t], %struct.dt_pthread_mutex_t, %struct.dt_pthread_mutex_t, %struct.dt_pthread_mutex_t, %struct.dt_pthread_mutex_t, %struct.dt_pthread_mutex_t, ptr, ptr, ptr, ptr, ptr, ptr, ptr, ptr, ptr, ptr, ptr, ptr, ptr, %struct.dt_lua_state_t, ptr, double, ptr, i32, [47 x i32], i32, i32, ptr, ptr, %struct.dt_sys_resources_t, %struct.dt_backthumb_t, %struct.dt_gimp_t }
%struct.dt_codepath_t = type { i8, [3 x i8] }
%struct.dt_pthread_mutex_t = type { %union.pthread_mutex_t }
%union.pthread_mutex_t = type { %struct.__pthread_mutex_s }
%struct.__pthread_mutex_s = type { i32, i32, i32, i32, i32, i16, i16, %struct.__pthread_internal_list }
%struct.__pthread_internal_list = type { ptr, ptr }
%struct.dt_lua_state_t = type { i32 }
%struct.dt_sys_resources_t = type { i64, i64, ptr, ptr, i32 }
%struct.dt_backthumb_t = type { double, double, i32, i32, i32, i32 }
%struct.dt_gimp_t = type { i32, ptr, ptr, i32, i32 }
%struct.dt_datetime_t = type { i32, i32, i32, i32, i32, i32, i32 }

@darktable = external global %struct.darktable_t, align 8
@.str.3 = private unnamed_addr constant [18 x i8] c"%Y:%m:%d %H:%M:%S\00", align 1
@.str.6 = private unnamed_addr constant [9 x i8] c"%s%s%03d\00", align 1
@.str.7 = private unnamed_addr constant [2 x i8] c".\00", align 1

; Function Attrs: nounwind uwtable
define internal ptr @_datetime_append_msec(ptr noundef %0, ptr noundef %1) #0 {
  %3 = alloca ptr, align 8
  %4 = alloca ptr, align 8
  store ptr %0, ptr %3, align 8, !tbaa !60
  store ptr %1, ptr %4, align 8, !tbaa !51
  %5 = load ptr, ptr %3, align 8, !tbaa !60
  %6 = load ptr, ptr %4, align 8, !tbaa !51
  %7 = call i32 @g_date_time_get_microsecond(ptr noundef %6)
  %8 = sitofp i32 %7 to double
  %9 = fmul reassoc nsz arcp contract afn double %8, 1.000000e-03
  %10 = fptosi double %9 to i32
  %11 = call noalias ptr (ptr, ...) @g_strdup_printf(ptr noundef @.str.6, ptr noundef %5, ptr noundef @.str.7, i32 noundef %10)
  ret ptr %11
}

; Function Attrs: nounwind uwtable
define i32 @dt_datetime_gdatetime_to_exif(ptr noundef %0, i64 noundef %1, ptr noundef %2) #0 {
  %4 = alloca i32, align 4
  %5 = alloca ptr, align 8
  %6 = alloca i64, align 8
  %7 = alloca ptr, align 8
  %8 = alloca ptr, align 8
  %9 = alloca ptr, align 8
  %10 = alloca i32, align 4
  store ptr %0, ptr %5, align 8, !tbaa !60
  store i64 %1, ptr %6, align 8, !tbaa !67
  store ptr %2, ptr %7, align 8, !tbaa !51
  %11 = load ptr, ptr %5, align 8, !tbaa !60
  %12 = icmp ne ptr %11, null
  br i1 %12, label %13, label %19

13:                                               ; preds = %3
  %14 = load i64, ptr %6, align 8, !tbaa !67
  %15 = icmp ne i64 %14, 0
  br i1 %15, label %16, label %19

16:                                               ; preds = %13
  %17 = load ptr, ptr %7, align 8, !tbaa !51
  %18 = icmp ne ptr %17, null
  br i1 %18, label %20, label %19

19:                                               ; preds = %16, %13, %3
  store i32 0, ptr %4, align 4
  br label %44

20:                                               ; preds = %16
  %21 = load ptr, ptr %5, align 8, !tbaa !60
  %22 = getelementptr inbounds i8, ptr %21, i64 0
  store i8 0, ptr %22, align 1, !tbaa !61
  call void @llvm.lifetime.start.p0(i64 8, ptr %8) #7
  %23 = load ptr, ptr %7, align 8, !tbaa !51
  %24 = call noalias ptr @g_date_time_format(ptr noundef %23, ptr noundef @.str.3)
  store ptr %24, ptr %8, align 8, !tbaa !60
  %25 = load ptr, ptr %8, align 8, !tbaa !60
  %26 = icmp ne ptr %25, null
  br i1 %26, label %27, label %42

27:                                               ; preds = %20
  %28 = load i64, ptr %6, align 8, !tbaa !67
  %29 = icmp eq i64 %28, 24
  br i1 %29, label %30, label %36

30:                                               ; preds = %27
  call void @llvm.lifetime.start.p0(i64 8, ptr %9) #7
  %31 = load ptr, ptr %8, align 8, !tbaa !60
  %32 = load ptr, ptr %7, align 8, !tbaa !51
  %33 = call ptr @_datetime_append_msec(ptr noundef %31, ptr noundef %32)
  store ptr %33, ptr %9, align 8, !tbaa !60
  %34 = load ptr, ptr %8, align 8, !tbaa !60
  call void @g_free(ptr noundef %34)
  %35 = load ptr, ptr %9, align 8, !tbaa !60
  store ptr %35, ptr %8, align 8, !tbaa !60
  call void @llvm.lifetime.end.p0(i64 8, ptr %9) #7
  br label %36

36:                                               ; preds = %30, %27
  %37 = load ptr, ptr %5, align 8, !tbaa !60
  %38 = load ptr, ptr %8, align 8, !tbaa !60
  %39 = load i64, ptr %6, align 8, !tbaa !67
  %40 = call i64 @g_strlcpy(ptr noundef %37, ptr noundef %38, i64 noundef %39)
  %41 = load ptr, ptr %8, align 8, !tbaa !60
  call void @g_free(ptr noundef %41)
  store i32 1, ptr %4, align 4
  store i32 1, ptr %10, align 4
  br label %43

42:                                               ; preds = %20
  store i32 0, ptr %4, align 4
  store i32 1, ptr %10, align 4
  br label %43

43:                                               ; preds = %42, %36
  call void @llvm.lifetime.end.p0(i64 8, ptr %8) #7
  br label %44

44:                                               ; preds = %43, %19
  %45 = load i32, ptr %4, align 4
  ret i32 %45
}

; Function Attrs: nounwind uwtable
define ptr @dt_datetime_exif_to_gdatetime(ptr noundef %0, ptr noundef %1) #0 {
  %3 = alloca ptr, align 8
  %4 = alloca ptr, align 8
  %5 = alloca ptr, align 8
  %6 = alloca %struct.dt_datetime_t, align 4
  %7 = alloca ptr, align 8
  %8 = alloca ptr, align 8
  %9 = alloca i32, align 4
  store ptr %0, ptr %4, align 8, !tbaa !60
  store ptr %1, ptr %5, align 8, !tbaa !83
  call void @llvm.lifetime.start.p0(i64 28, ptr %6) #7
  %10 = load ptr, ptr %4, align 8, !tbaa !60
  %11 = call i32 @dt_datetime_exif_to_numbers(ptr noundef %6, ptr noundef %10)
  %12 = icmp ne i32 %11, 0
  br i1 %12, label %13, label %48

13:                                               ; preds = %2
  call void @llvm.lifetime.start.p0(i64 8, ptr %7) #7
  %14 = load ptr, ptr %5, align 8, !tbaa !83
  %15 = getelementptr inbounds nuw %struct.dt_datetime_t, ptr %6, i32 0, i32 0
  %16 = load i32, ptr %15, align 4, !tbaa !52
  %17 = getelementptr inbounds nuw %struct.dt_datetime_t, ptr %6, i32 0, i32 1
  %18 = load i32, ptr %17, align 4, !tbaa !54
  %19 = getelementptr inbounds nuw %struct.dt_datetime_t, ptr %6, i32 0, i32 2
  %20 = load i32, ptr %19, align 4, !tbaa !55
  %21 = getelementptr inbounds nuw %struct.dt_datetime_t, ptr %6, i32 0, i32 3
  %22 = load i32, ptr %21, align 4, !tbaa !56
  %23 = getelementptr inbounds nuw %struct.dt_datetime_t, ptr %6, i32 0, i32 4
  %24 = load i32, ptr %23, align 4, !tbaa !57
  %25 = getelementptr inbounds nuw %struct.dt_datetime_t, ptr %6, i32 0, i32 5
  %26 = load i32, ptr %25, align 4, !tbaa !58
  %27 = sitofp i32 %26 to double
  %28 = call ptr @g_date_time_new(ptr noundef %14, i32 noundef %16, i32 noundef %18, i32 noundef %20, i32 noundef %22, i32 noundef %24, double noundef %27)
  store ptr %28, ptr %7, align 8, !tbaa !51
  %29 = load ptr, ptr %7, align 8, !tbaa !51
  %30 = icmp ne ptr %29, null
  br i1 %30, label %31, label %45

31:                                               ; preds = %13
  %32 = getelementptr inbounds nuw %struct.dt_datetime_t, ptr %6, i32 0, i32 6
  %33 = load i32, ptr %32, align 4, !tbaa !59
  %34 = icmp ne i32 %33, 0
  br i1 %34, label %35, label %44

35:                                               ; preds = %31
  call void @llvm.lifetime.start.p0(i64 8, ptr %8) #7
  %36 = load ptr, ptr %7, align 8, !tbaa !51
  %37 = getelementptr inbounds nuw %struct.dt_datetime_t, ptr %6, i32 0, i32 6
  %38 = load i32, ptr %37, align 4, !tbaa !59
  %39 = mul nsw i32 %38, 1000
  %40 = sext i32 %39 to i64
  %41 = call ptr @g_date_time_add(ptr noundef %36, i64 noundef %40)
  store ptr %41, ptr %8, align 8, !tbaa !51
  %42 = load ptr, ptr %7, align 8, !tbaa !51
  call void @g_date_time_unref(ptr noundef %42)
  %43 = load ptr, ptr %8, align 8, !tbaa !51
  store ptr %43, ptr %3, align 8
  store i32 1, ptr %9, align 4
  call void @llvm.lifetime.end.p0(i64 8, ptr %8) #7
  br label %47

44:                                               ; preds = %31
  br label %45

45:                                               ; preds = %44, %13
  %46 = load ptr, ptr %7, align 8, !tbaa !51
  store ptr %46, ptr %3, align 8
  store i32 1, ptr %9, align 4
  br label %47

47:                                               ; preds = %45, %35
  call void @llvm.lifetime.end.p0(i64 8, ptr %7) #7
  br label %49

48:                                               ; preds = %2
  store ptr null, ptr %3, align 8
  store i32 1, ptr %9, align 4
  br label %49

49:                                               ; preds = %48, %47
  call void @llvm.lifetime.end.p0(i64 28, ptr %6) #7
  %50 = load ptr, ptr %3, align 8
  ret ptr %50
}

; Function Attrs: nounwind uwtable
define i32 @dt_datetime_exif_add_numbers(ptr noundef %0, ptr noundef byval(%struct.dt_datetime_t) align 8 %1, i32 noundef %2, ptr noundef %3) #0 {
  %5 = alloca i32, align 4
  %6 = alloca ptr, align 8
  %7 = alloca i32, align 4
  %8 = alloca ptr, align 8
  %9 = alloca ptr, align 8
  %10 = alloca i32, align 4
  %11 = alloca ptr, align 8
  %12 = alloca [20 x i8], align 16
  store ptr %0, ptr %6, align 8, !tbaa !60
  store i32 %2, ptr %7, align 4, !tbaa !62
  store ptr %3, ptr %8, align 8, !tbaa !84
  call void @llvm.lifetime.start.p0(i64 8, ptr %9) #7
  %13 = load ptr, ptr %6, align 8, !tbaa !60
  %14 = load ptr, ptr getelementptr inbounds nuw (%struct.darktable_t, ptr @darktable, i32 0, i32 57), align 8, !tbaa !6
  %15 = call ptr @dt_datetime_exif_to_gdatetime(ptr noundef %13, ptr noundef %14)
  store ptr %15, ptr %9, align 8, !tbaa !51
  %16 = load ptr, ptr %9, align 8, !tbaa !51
  %17 = icmp ne ptr %16, null
  br i1 %17, label %19, label %18

18:                                               ; preds = %4
  store i32 0, ptr %5, align 4
  store i32 1, ptr %10, align 4
  br label %31

19:                                               ; preds = %4
  call void @llvm.lifetime.start.p0(i64 8, ptr %11) #7
  %20 = load ptr, ptr %9, align 8, !tbaa !51
  %21 = load i32, ptr %7, align 4, !tbaa !62
  %22 = call ptr @dt_datetime_gdatetime_add_numbers(ptr noundef %20, ptr noundef byval(%struct.dt_datetime_t) align 8 %1, i32 noundef %21)
  store ptr %22, ptr %11, align 8, !tbaa !51
  call void @llvm.lifetime.start.p0(i64 20, ptr %12) #7
  %23 = getelementptr inbounds [20 x i8], ptr %12, i64 0, i64 0
  %24 = load ptr, ptr %11, align 8, !tbaa !51
  %25 = call i32 @dt_datetime_gdatetime_to_exif(ptr noundef %23, i64 noundef 20, ptr noundef %24)
  %26 = load ptr, ptr %9, align 8, !tbaa !51
  call void @g_date_time_unref(ptr noundef %26)
  %27 = load ptr, ptr %11, align 8, !tbaa !51
  call void @g_date_time_unref(ptr noundef %27)
  %28 = getelementptr inbounds [20 x i8], ptr %12, i64 0, i64 0
  %29 = call noalias ptr @g_strdup(ptr noundef %28)
  %30 = load ptr, ptr %8, align 8, !tbaa !84
  store ptr %29, ptr %30, align 8, !tbaa !60
  store i32 1, ptr %5, align 4
  store i32 1, ptr %10, align 4
  call void @llvm.lifetime.end.p0(i64 20, ptr %12) #7
  call void @llvm.lifetime.end.p0(i64 8, ptr %11) #7
  br label %31

31:                                               ; preds = %19, %18
  call void @llvm.lifetime.end.p0(i64 8, ptr %9) #7
  %32 = load i32, ptr %5, align 4
  ret i32 %32
}