; Function Attrs: nounwind uwtable
define range(i32 0, 2) i32 @dt_datetime_exif_add_numbers(ptr noundef %0, ptr noundef readonly byval(%struct.dt_datetime_t) align 8 captures(none) %1, i32 noundef %2, ptr noundef writeonly captures(none) %3) local_unnamed_addr #0 {
  %5 = alloca %struct.dt_datetime_t, align 4
  %6 = alloca [20 x i8], align 16
  %7 = load ptr, ptr getelementptr inbounds nuw (i8, ptr @darktable, i64 3328), align 8, !tbaa !6
  call void @llvm.lifetime.start.p0(i64 28, ptr nonnull %5) #7
  %8 = call i32 @dt_datetime_exif_to_numbers(ptr noundef nonnull %5, ptr noundef %0)
  %.not.i = icmp eq i32 %8, 0
  br i1 %.not.i, label %dt_datetime_exif_to_gdatetime.exit.thread, label %9

dt_datetime_exif_to_gdatetime.exit.thread:        ; preds = %4
  call void @llvm.lifetime.end.p0(i64 28, ptr nonnull %5) #7
  br label %38

9:                                                ; preds = %4
  %10 = load i32, ptr %5, align 4, !tbaa !49
  %11 = getelementptr inbounds nuw i8, ptr %5, i64 4
  %12 = load i32, ptr %11, align 4, !tbaa !51
  %13 = getelementptr inbounds nuw i8, ptr %5, i64 8
  %14 = load i32, ptr %13, align 4, !tbaa !52
  %15 = getelementptr inbounds nuw i8, ptr %5, i64 12
  %16 = load i32, ptr %15, align 4, !tbaa !53
  %17 = getelementptr inbounds nuw i8, ptr %5, i64 16
  %18 = load i32, ptr %17, align 4, !tbaa !54
  %19 = getelementptr inbounds nuw i8, ptr %5, i64 20
  %20 = load i32, ptr %19, align 4, !tbaa !55
  %21 = sitofp i32 %20 to double
  %22 = call ptr @g_date_time_new(ptr noundef %7, i32 noundef %10, i32 noundef %12, i32 noundef %14, i32 noundef %16, i32 noundef %18, double noundef %21) #7
  %23 = icmp ne ptr %22, null
  %24 = getelementptr inbounds nuw i8, ptr %5, i64 24
  %25 = load i32, ptr %24, align 4
  %26 = icmp ne i32 %25, 0
  %or.cond.i = select i1 %23, i1 %26, i1 false
  br i1 %or.cond.i, label %27, label %dt_datetime_exif_to_gdatetime.exit

27:                                               ; preds = %9
  %28 = mul nsw i32 %25, 1000
  %29 = sext i32 %28 to i64
  %30 = call ptr @g_date_time_add(ptr noundef nonnull %22, i64 noundef %29) #7
  call void @g_date_time_unref(ptr noundef nonnull %22) #7
  br label %dt_datetime_exif_to_gdatetime.exit

dt_datetime_exif_to_gdatetime.exit:               ; preds = %9, %27
  %.1.i = phi ptr [ %30, %27 ], [ %22, %9 ]
  call void @llvm.lifetime.end.p0(i64 28, ptr nonnull %5) #7
  %.not = icmp eq ptr %.1.i, null
  br i1 %.not, label %38, label %31

31:                                               ; preds = %dt_datetime_exif_to_gdatetime.exit
  %32 = call ptr @dt_datetime_gdatetime_add_numbers(ptr noundef nonnull %.1.i, ptr noundef nonnull byval(%struct.dt_datetime_t) align 8 %1, i32 noundef %2)
  call void @llvm.lifetime.start.p0(i64 20, ptr nonnull %6) #7
  %.not13 = icmp eq ptr %32, null
  br i1 %.not13, label %dt_datetime_gdatetime_to_exif.exit, label %33

33:                                               ; preds = %31
  store i8 0, ptr %6, align 16, !tbaa !57
  %34 = call noalias ptr @g_date_time_format(ptr noundef nonnull %32, ptr noundef nonnull @.str.3) #7
  %.not.i10 = icmp eq ptr %34, null
  br i1 %.not.i10, label %dt_datetime_gdatetime_to_exif.exit, label %35

35:                                               ; preds = %33
  %36 = call i64 @g_strlcpy(ptr noundef nonnull %6, ptr noundef nonnull %34, i64 noundef 20) #7
  call void @g_free(ptr noundef nonnull %34) #7
  br label %dt_datetime_gdatetime_to_exif.exit

dt_datetime_gdatetime_to_exif.exit:               ; preds = %31, %33, %35
  call void @g_date_time_unref(ptr noundef nonnull %.1.i) #7
  call void @g_date_time_unref(ptr noundef %32) #7
  %37 = call noalias ptr @g_strdup(ptr noundef nonnull %6) #7
  store ptr %37, ptr %3, align 8, !tbaa !72
  call void @llvm.lifetime.end.p0(i64 20, ptr nonnull %6) #7
  br label %38

38:                                               ; preds = %dt_datetime_exif_to_gdatetime.exit.thread, %dt_datetime_exif_to_gdatetime.exit, %dt_datetime_gdatetime_to_exif.exit
  %.0 = phi i32 [ 1, %dt_datetime_gdatetime_to_exif.exit ], [ 0, %dt_datetime_exif_to_gdatetime.exit ], [ 0, %dt_datetime_exif_to_gdatetime.exit.thread ]
  ret i32 %.0
}